target datalayout = "e-m:e-p270:32:32-p271:32:32-p272:64:64-i64:64-i128:128-f80:128-n8:16:32:64-S128"
target triple = "x86_64-pc-linux-gnu"

%"class.zmq::msg_t" = type { %union.anon }
%union.anon = type { %struct.anon }
%struct.anon = type { ptr, [34 x i8], i8, i8, i32, %"union.zmq::msg_t::group_t" }
%"union.zmq::msg_t::group_t" = type { %struct.anon.1 }
%struct.anon.1 = type { i8, ptr }
%"class.zmq::pipe_t" = type { %"class.zmq::object_t.base", [4 x i8], %"class.zmq::array_item_t.base", [4 x i8], %"class.zmq::array_item_t.base.11", [4 x i8], %"class.zmq::array_item_t.base.13", ptr, ptr, i8, i8, i32, i32, i32, i32, i64, i64, i64, ptr, ptr, i32, i8, [3 x i8], %"struct.zmq::blob_t", i32, i8, [3 x i8], %"struct.zmq::endpoint_uri_pair_t", %"class.zmq::msg_t" }
%"class.zmq::object_t.base" = type <{ ptr, ptr, i32 }>
%"class.zmq::array_item_t.base" = type <{ ptr, i32 }>
%"class.zmq::array_item_t.base.11" = type <{ ptr, i32 }>
%"class.zmq::array_item_t.base.13" = type <{ ptr, i32 }>
%"struct.zmq::blob_t" = type <{ ptr, i64, i8, [7 x i8] }>
%"struct.zmq::endpoint_uri_pair_t" = type <{ %"class.std::__cxx11::basic_string", %"class.std::__cxx11::basic_string", i32, [4 x i8] }>
%"class.std::__cxx11::basic_string" = type { %"struct.std::__cxx11::basic_string<char>::_Alloc_hider", i64, %union.anon.14 }
%"struct.std::__cxx11::basic_string<char>::_Alloc_hider" = type { ptr }
%union.anon.14 = type { i64, [8 x i8] }

@stderr = external global ptr, align 8
@.str.1 = private unnamed_addr constant [104 x i8] c"generated/home/dtcxzyw/WorkSpace/Projects/compilers/llvm-opt-benchmark/bench/libzmq/libzmq/src/pipe.cpp\00", align 1
@.str.4 = private unnamed_addr constant [30 x i8] c"Assertion failed: %s (%s:%d)\0A\00", align 1
@.str.13 = private unnamed_addr constant [77 x i8] c"_state == active || _state == delimiter_received || _state == term_req_sent1\00", align 1

; Function Attrs: mustprogress uwtable
define void @_ZN3zmq6pipe_t17process_pipe_termEv(ptr noundef nonnull align 8 dereferenceable(328) %0) unnamed_addr #0 align 2 {
  %2 = alloca ptr, align 8
  store ptr %0, ptr %2, align 8, !tbaa !27
  %3 = load ptr, ptr %2, align 8
  br label %4

4:                                                ; preds = %1
  %5 = getelementptr inbounds nuw %"class.zmq::pipe_t", ptr %3, i32 0, i32 20
  %6 = load i32, ptr %5, align 8, !tbaa !110
  %7 = icmp eq i32 %6, 0
  br i1 %7, label %16, label %8

8:                                                ; preds = %4
  %9 = getelementptr inbounds nuw %"class.zmq::pipe_t", ptr %3, i32 0, i32 20
  %10 = load i32, ptr %9, align 8, !tbaa !110
  %11 = icmp eq i32 %10, 1
  br i1 %11, label %16, label %12

12:                                               ; preds = %8
  %13 = getelementptr inbounds nuw %"class.zmq::pipe_t", ptr %3, i32 0, i32 20
  %14 = load i32, ptr %13, align 8, !tbaa !110
  %15 = icmp eq i32 %14, 4
  br label %16

16:                                               ; preds = %12, %8, %4
  %17 = phi i1 [ true, %8 ], [ true, %4 ], [ %15, %12 ]
  %18 = xor i1 %17, true
  %19 = zext i1 %18 to i64
  %20 = call i64 @llvm.expect.i64(i64 %19, i64 0)
  %21 = icmp ne i64 %20, 0
  br i1 %21, label %22, label %27

22:                                               ; preds = %16
  %23 = load ptr, ptr @stderr, align 8, !tbaa !21
  %24 = call i32 (ptr, ptr, ...) @fprintf(ptr noundef %23, ptr noundef @.str.4, ptr noundef @.str.13, ptr noundef @.str.1, i32 noundef 306) #17
  %25 = load ptr, ptr @stderr, align 8, !tbaa !21
  %26 = call i32 @fflush(ptr noundef %25)
  call void @_ZN3zmq9zmq_abortEPKc(ptr noundef @.str.13)
  br label %27

27:                                               ; preds = %22, %16
  br label %28

28:                                               ; preds = %27
  %29 = getelementptr inbounds nuw %"class.zmq::pipe_t", ptr %3, i32 0, i32 20
  %30 = load i32, ptr %29, align 8, !tbaa !110
  %31 = icmp eq i32 %30, 0
  br i1 %31, label %32, label %44

32:                                               ; preds = %28
  %33 = getelementptr inbounds nuw %"class.zmq::pipe_t", ptr %3, i32 0, i32 21
  %34 = load i8, ptr %33, align 4, !tbaa !126, !range !17, !noundef !18
  %35 = trunc i8 %34 to i1
  br i1 %35, label %36, label %38

36:                                               ; preds = %32
  %37 = getelementptr inbounds nuw %"class.zmq::pipe_t", ptr %3, i32 0, i32 20
  store i32 2, ptr %37, align 8, !tbaa !110
  br label %43

38:                                               ; preds = %32
  %39 = getelementptr inbounds nuw %"class.zmq::pipe_t", ptr %3, i32 0, i32 20
  store i32 3, ptr %39, align 8, !tbaa !110
  %40 = getelementptr inbounds nuw %"class.zmq::pipe_t", ptr %3, i32 0, i32 8
  store ptr null, ptr %40, align 8, !tbaa !108
  %41 = getelementptr inbounds nuw %"class.zmq::pipe_t", ptr %3, i32 0, i32 18
  %42 = load ptr, ptr %41, align 8, !tbaa !53
  call void @_ZN3zmq8object_t18send_pipe_term_ackEPNS_6pipe_tE(ptr noundef nonnull align 8 dereferenceable(20) %3, ptr noundef %42)
  br label %43

43:                                               ; preds = %38, %36
  br label %64

44:                                               ; preds = %28
  %45 = getelementptr inbounds nuw %"class.zmq::pipe_t", ptr %3, i32 0, i32 20
  %46 = load i32, ptr %45, align 8, !tbaa !110
  %47 = icmp eq i32 %46, 1
  br i1 %47, label %48, label %53

48:                                               ; preds = %44
  %49 = getelementptr inbounds nuw %"class.zmq::pipe_t", ptr %3, i32 0, i32 20
  store i32 3, ptr %49, align 8, !tbaa !110
  %50 = getelementptr inbounds nuw %"class.zmq::pipe_t", ptr %3, i32 0, i32 8
  store ptr null, ptr %50, align 8, !tbaa !108
  %51 = getelementptr inbounds nuw %"class.zmq::pipe_t", ptr %3, i32 0, i32 18
  %52 = load ptr, ptr %51, align 8, !tbaa !53
  call void @_ZN3zmq8object_t18send_pipe_term_ackEPNS_6pipe_tE(ptr noundef nonnull align 8 dereferenceable(20) %3, ptr noundef %52)
  br label %63

53:                                               ; preds = %44
  %54 = getelementptr inbounds nuw %"class.zmq::pipe_t", ptr %3, i32 0, i32 20
  %55 = load i32, ptr %54, align 8, !tbaa !110
  %56 = icmp eq i32 %55, 4
  br i1 %56, label %57, label %62

57:                                               ; preds = %53
  %58 = getelementptr inbounds nuw %"class.zmq::pipe_t", ptr %3, i32 0, i32 20
  store i32 5, ptr %58, align 8, !tbaa !110
  %59 = getelementptr inbounds nuw %"class.zmq::pipe_t", ptr %3, i32 0, i32 8
  store ptr null, ptr %59, align 8, !tbaa !108
  %60 = getelementptr inbounds nuw %"class.zmq::pipe_t", ptr %3, i32 0, i32 18
  %61 = load ptr, ptr %60, align 8, !tbaa !53
  call void @_ZN3zmq8object_t18send_pipe_term_ackEPNS_6pipe_tE(ptr noundef nonnull align 8 dereferenceable(20) %3, ptr noundef %61)
  br label %62

62:                                               ; preds = %57, %53
  br label %63

63:                                               ; preds = %62, %48
  br label %64

64:                                               ; preds = %63, %43
  ret void
}