; Function Attrs: mustprogress uwtable
define void @_ZN3zmq6pipe_t17process_pipe_termEv(ptr noundef nonnull align 8 dereferenceable(328) %0) unnamed_addr #0 align 2 {
  %2 = getelementptr inbounds nuw i8, ptr %0, i64 152
  %3 = load i32, ptr %2, align 8, !tbaa !105
  switch i32 %3, label %4 [
    i32 0, label %.critedge
    i32 1, label %.critedge
    i32 4, label %.critedge
  ]

4:                                                ; preds = %1
  %5 = load ptr, ptr @stderr, align 8, !tbaa !21
  %6 = tail call i32 (ptr, ptr, ...) @fprintf(ptr noundef %5, ptr noundef nonnull @.str.4, ptr noundef nonnull @.str.13, ptr noundef nonnull @.str.1, i32 noundef 306) #26
  %7 = load ptr, ptr @stderr, align 8, !tbaa !21
  %8 = tail call i32 @fflush(ptr noundef %7)
  tail call void @_ZN3zmq9zmq_abortEPKc(ptr noundef nonnull @.str.13)
  %.pr = load i32, ptr %2, align 8, !tbaa !105
  br label %.critedge

.critedge:                                        ; preds = %1, %1, %1, %4
  %9 = phi i32 [ %3, %1 ], [ %3, %1 ], [ %3, %1 ], [ %.pr, %4 ]
  switch i32 %9, label %27 [
    i32 0, label %10
    i32 1, label %19
    i32 4, label %23
  ]

10:                                               ; preds = %.critedge
  %11 = getelementptr inbounds nuw i8, ptr %0, i64 156
  %12 = load i8, ptr %11, align 4, !tbaa !116, !range !7, !noundef !8
  %13 = trunc nuw i8 %12 to i1
  br i1 %13, label %14, label %15

14:                                               ; preds = %10
  store i32 2, ptr %2, align 8, !tbaa !105
  br label %27

15:                                               ; preds = %10
  store i32 3, ptr %2, align 8, !tbaa !105
  %16 = getelementptr inbounds nuw i8, ptr %0, i64 80
  store ptr null, ptr %16, align 8, !tbaa !103
  %17 = getelementptr inbounds nuw i8, ptr %0, i64 136
  %18 = load ptr, ptr %17, align 8, !tbaa !29
  tail call void @_ZN3zmq8object_t18send_pipe_term_ackEPNS_6pipe_tE(ptr noundef nonnull align 8 dereferenceable(20) %0, ptr noundef %18)
  br label %27

19:                                               ; preds = %.critedge
  store i32 3, ptr %2, align 8, !tbaa !105
  %20 = getelementptr inbounds nuw i8, ptr %0, i64 80
  store ptr null, ptr %20, align 8, !tbaa !103
  %21 = getelementptr inbounds nuw i8, ptr %0, i64 136
  %22 = load ptr, ptr %21, align 8, !tbaa !29
  tail call void @_ZN3zmq8object_t18send_pipe_term_ackEPNS_6pipe_tE(ptr noundef nonnull align 8 dereferenceable(20) %0, ptr noundef %22)
  br label %27

23:                                               ; preds = %.critedge
  store i32 5, ptr %2, align 8, !tbaa !105
  %24 = getelementptr inbounds nuw i8, ptr %0, i64 80
  store ptr null, ptr %24, align 8, !tbaa !103
  %25 = getelementptr inbounds nuw i8, ptr %0, i64 136
  %26 = load ptr, ptr %25, align 8, !tbaa !29
  tail call void @_ZN3zmq8object_t18send_pipe_term_ackEPNS_6pipe_tE(ptr noundef nonnull align 8 dereferenceable(20) %0, ptr noundef %26)
  br label %27

27:                                               ; preds = %.critedge, %19, %23, %14, %15
  ret void
}